target datalayout = "e-m:e-p270:32:32-p271:32:32-p272:64:64-i64:64-i128:128-f80:128-n8:16:32:64-S128"
target triple = "x86_64-pc-linux-gnu"

%struct._zval_struct = type { %union._zend_value, %union.anon, %union.anon.2 }
%union._zend_value = type { i64 }
%union.anon = type { i32 }
%union.anon.2 = type { i32 }
%struct._zend_array = type { %struct._zend_refcounted_h, %union.anon.4, i32, %union.anon.6, i32, i32, i32, i32, i64, ptr }
%struct._zend_refcounted_h = type { i32, %union.anon.3 }
%union.anon.3 = type { i32 }
%union.anon.4 = type { i32 }
%union.anon.6 = type { ptr }
%struct._sapi_globals_struct = type { ptr, %struct.sapi_request_info, %struct.sapi_headers_struct, i64, i8, i8, %struct.stat, ptr, ptr, ptr, i64, i32, i8, double, %struct._zend_array, %struct._zval_struct, %struct._zend_fcall_info_cache, %struct.sapi_request_parse_body_context }
%struct.sapi_request_info = type { ptr, ptr, ptr, i64, ptr, ptr, ptr, ptr, i8, i8, i8, ptr, ptr, ptr, ptr, ptr, ptr, ptr, i32, i32, ptr, i32 }
%struct.sapi_headers_struct = type { %struct._zend_llist, i32, i8, ptr, ptr }
%struct._zend_llist = type { ptr, ptr, i64, i64, ptr, i8, ptr }
%struct.stat = type { i64, i64, i64, i32, i32, i32, i32, i64, i64, i64, i64, %struct.timespec, %struct.timespec, %struct.timespec, [3 x i64] }
%struct.timespec = type { i64, i64 }
%struct._zend_fcall_info_cache = type { ptr, ptr, ptr, ptr, ptr }
%struct.sapi_request_parse_body_context = type { i8, [5 x %struct.anon.8] }
%struct.anon.8 = type { i8, i64 }

@sapi_globals = external global %struct._sapi_globals_struct, align 8

; Function Attrs: nounwind uwtable
define internal i64 @sapi_fcgi_read_post(ptr noundef %0, i64 noundef %1) #0 {
  %3 = alloca ptr, align 8
  %4 = alloca i64, align 8
  %5 = alloca i64, align 8
  %6 = alloca i32, align 4
  %7 = alloca ptr, align 8
  %8 = alloca i64, align 8
  %9 = alloca i64, align 8
  %10 = alloca i32, align 4
  %11 = alloca i32, align 4
  store ptr %0, ptr %3, align 8, !tbaa !63
  store i64 %1, ptr %4, align 8, !tbaa !64
  call void @llvm.lifetime.start.p0(i64 8, ptr %5) #20
  store i64 0, ptr %5, align 8, !tbaa !64
  call void @llvm.lifetime.start.p0(i64 4, ptr %6) #20
  call void @llvm.lifetime.start.p0(i64 8, ptr %7) #20
  %12 = load ptr, ptr @sapi_globals, align 8, !tbaa !46
  store ptr %12, ptr %7, align 8, !tbaa !61
  call void @llvm.lifetime.start.p0(i64 8, ptr %8) #20
  %13 = load i64, ptr getelementptr inbounds nuw (%struct.sapi_request_info, ptr getelementptr inbounds nuw (%struct._sapi_globals_struct, ptr @sapi_globals, i32 0, i32 1), i32 0, i32 3), align 8, !tbaa !143
  %14 = load i64, ptr getelementptr inbounds nuw (%struct._sapi_globals_struct, ptr @sapi_globals, i32 0, i32 3), align 8, !tbaa !144
  %15 = sub nsw i64 %13, %14
  store i64 %15, ptr %8, align 8, !tbaa !64
  %16 = load i64, ptr %8, align 8, !tbaa !64
  %17 = load i64, ptr %4, align 8, !tbaa !64
  %18 = icmp ult i64 %16, %17
  br i1 %18, label %19, label %21

19:                                               ; preds = %2
  %20 = load i64, ptr %8, align 8, !tbaa !64
  store i64 %20, ptr %4, align 8, !tbaa !64
  br label %21

21:                                               ; preds = %19, %2
  br label %22

22:                                               ; preds = %54, %21
  %23 = load i64, ptr %5, align 8, !tbaa !64
  %24 = load i64, ptr %4, align 8, !tbaa !64
  %25 = icmp ult i64 %23, %24
  br i1 %25, label %26, label %55

26:                                               ; preds = %22
  call void @llvm.lifetime.start.p0(i64 8, ptr %9) #20
  %27 = load i64, ptr %4, align 8, !tbaa !64
  %28 = load i64, ptr %5, align 8, !tbaa !64
  %29 = sub i64 %27, %28
  store i64 %29, ptr %9, align 8, !tbaa !64
  call void @llvm.lifetime.start.p0(i64 4, ptr %10) #20
  %30 = load i64, ptr %9, align 8, !tbaa !64
  %31 = icmp ugt i64 %30, 2147483647
  br i1 %31, label %32, label %33

32:                                               ; preds = %26
  br label %36

33:                                               ; preds = %26
  %34 = load i64, ptr %9, align 8, !tbaa !64
  %35 = trunc i64 %34 to i32
  br label %36

36:                                               ; preds = %33, %32
  %37 = phi i32 [ 2147483647, %32 ], [ %35, %33 ]
  store i32 %37, ptr %10, align 4, !tbaa !73
  %38 = load ptr, ptr %7, align 8, !tbaa !61
  %39 = load ptr, ptr %3, align 8, !tbaa !63
  %40 = load i64, ptr %5, align 8, !tbaa !64
  %41 = getelementptr inbounds nuw i8, ptr %39, i64 %40
  %42 = load i32, ptr %10, align 4, !tbaa !73
  %43 = call i32 @fcgi_read(ptr noundef %38, ptr noundef %41, i32 noundef %42)
  store i32 %43, ptr %6, align 4, !tbaa !73
  %44 = load i32, ptr %6, align 4, !tbaa !73
  %45 = icmp sle i32 %44, 0
  br i1 %45, label %46, label %47

46:                                               ; preds = %36
  store i32 3, ptr %11, align 4
  br label %52

47:                                               ; preds = %36
  %48 = load i32, ptr %6, align 4, !tbaa !73
  %49 = sext i32 %48 to i64
  %50 = load i64, ptr %5, align 8, !tbaa !64
  %51 = add i64 %50, %49
  store i64 %51, ptr %5, align 8, !tbaa !64
  store i32 0, ptr %11, align 4
  br label %52

52:                                               ; preds = %47, %46
  call void @llvm.lifetime.end.p0(i64 4, ptr %10) #20
  call void @llvm.lifetime.end.p0(i64 8, ptr %9) #20
  %53 = load i32, ptr %11, align 4
  switch i32 %53, label %57 [
    i32 0, label %54
    i32 3, label %55
  ]

54:                                               ; preds = %52
  br label %22

55:                                               ; preds = %52, %22
  %56 = load i64, ptr %5, align 8, !tbaa !64
  store i32 1, ptr %11, align 4
  call void @llvm.lifetime.end.p0(i64 8, ptr %8) #20
  call void @llvm.lifetime.end.p0(i64 8, ptr %7) #20
  call void @llvm.lifetime.end.p0(i64 4, ptr %6) #20
  call void @llvm.lifetime.end.p0(i64 8, ptr %5) #20
  ret i64 %56

57:                                               ; preds = %52
  unreachable
}