; Function Attrs: nounwind uwtable
define internal i64 @sapi_fcgi_read_post(ptr noundef %0, i64 noundef %1) #0 {
  %3 = load ptr, ptr @sapi_globals, align 8, !tbaa !44
  %4 = load i64, ptr getelementptr inbounds nuw (i8, ptr @sapi_globals, i64 32), align 8, !tbaa !108
  %5 = load i64, ptr getelementptr inbounds nuw (i8, ptr @sapi_globals, i64 240), align 8, !tbaa !140
  %6 = sub nsw i64 %4, %5
  %spec.select = tail call i64 @llvm.umin.i64(i64 %6, i64 %1)
  br label %7

7:                                                ; preds = %9, %2
  %.018 = phi i64 [ 0, %2 ], [ %17, %9 ]
  %8 = icmp ult i64 %.018, %spec.select
  br i1 %8, label %9, label %18

9:                                                ; preds = %7
  %10 = sub nuw i64 %spec.select, %.018
  %11 = tail call i64 @llvm.umin.i64(i64 %10, i64 2147483647)
  %12 = trunc nuw nsw i64 %11 to i32
  %13 = getelementptr inbounds nuw i8, ptr %0, i64 %.018
  %14 = tail call i32 @fcgi_read(ptr noundef %3, ptr noundef %13, i32 noundef %12) #29
  %15 = icmp slt i32 %14, 1
  %16 = zext nneg i32 %14 to i64
  %17 = add i64 %.018, %16
  br i1 %15, label %18, label %7

18:                                               ; preds = %9, %7
  ret i64 %.018
}